target datalayout = "e-m:e-p270:32:32-p271:32:32-p272:64:64-i64:64-i128:128-f80:128-n8:16:32:64-S128"
target triple = "x86_64-pc-linux-gnu"

%struct.SDL_VideoDevice = type { ptr, ptr, ptr, ptr, ptr, ptr, ptr, ptr, ptr, ptr, ptr, ptr, ptr, ptr, ptr, ptr, ptr, ptr, ptr, ptr, ptr, ptr, ptr, ptr, ptr, ptr, ptr, ptr, ptr, ptr, ptr, ptr, ptr, ptr, ptr, ptr, ptr, ptr, ptr, ptr, ptr, ptr, ptr, ptr, ptr, ptr, ptr, ptr, ptr, ptr, ptr, ptr, ptr, ptr, ptr, ptr, ptr, ptr, ptr, ptr, ptr, ptr, ptr, ptr, ptr, ptr, ptr, ptr, ptr, ptr, ptr, ptr, ptr, ptr, ptr, ptr, ptr, ptr, ptr, ptr, ptr, ptr, ptr, ptr, ptr, ptr, ptr, ptr, ptr, ptr, ptr, ptr, ptr, ptr, ptr, ptr, ptr, i64, i8, i8, i8, ptr, i32, ptr, %struct.SDL_Rect, ptr, ptr, i32, ptr, ptr, ptr, ptr, i64, ptr, i8, i32, i32, %struct.anon, ptr, ptr, ptr, ptr, ptr, ptr, %struct.SDL_AtomicInt, %struct.SDL_AtomicInt, i8, %struct.anon.0, ptr, ptr, ptr, ptr, ptr }
%struct.SDL_Rect = type { i32, i32, i32, i32 }
%struct.anon = type { i32, i32, i32, i32, i32, i32, i32, i32, i32, i32, i32, i32, i32, i32, i32, i32, i32, i32, i32, i32, i32, i32, i32, i32, i32, i32, i32, i32, i32, [256 x i8], ptr }
%struct.SDL_AtomicInt = type { i32 }
%struct.anon.0 = type { ptr, ptr, i32, [256 x i8], ptr }
%struct.SDL_VideoData = type { ptr, ptr, i32, ptr, i64, i32, ptr, i32, i64, i64, %struct.X11_ClipboardData, %struct.X11_ClipboardData, ptr, i64, %struct.X11_SettingsData, i8, %struct.anon.1, [256 x i32], i8, i8, i8, i64, i8, %struct.SDL_Point, i32, ptr, i32, i8, i32, %struct.anon.2, i8, i64, ptr, ptr, i8, i8, i8 }
%struct.X11_ClipboardData = type { ptr, ptr, ptr, i64, i32 }
%struct.X11_SettingsData = type { ptr }
%struct.anon.1 = type { i64, i64, i64, i64, i64, i64, i64, i64, i64, i64, i64, i64, i64, i64, i64, i64, i64, i64, i64, i64, i64, i64, i64, i64, i64, i64, i64, i64, i64, i64, i64, i64, i64, i64, i64, i64, i64, i64, i64, i64, i64, i64, i64, i64, i64, i64, i64, i64, i64, i64, i64, i64, i64 }
%struct.SDL_Point = type { i32, i32 }
%struct.anon.2 = type { ptr, i32, i32, i32, i16, i32, i32 }
%struct.anon.4 = type { ptr, ptr, i32, i32, i32, i32, ptr, i64, i64, i64, i32, ptr, i32, i32, i32, i32, i32, ptr, i32, i32, ptr, ptr, i32, i64, i64, ptr, ptr, ptr, ptr, i32, ptr, ptr, ptr, i32, i32, ptr, i64, i64, i32, i32, ptr, ptr, i32, ptr }
%struct.Screen = type { ptr, ptr, i64, i32, i32, i32, i32, i32, ptr, i32, ptr, ptr, i64, i64, i64, i32, i32, i32, i32, i64 }
%struct.SDL_WindowData = type { ptr, i64, ptr, i64, i8, %struct.XShmSegmentInfo, ptr, ptr, ptr, i8, i32, i32, i32, i32, i8, i8, i8, i64, i32, i64, i8, %struct.SDL_Point, %struct.XConfigureEvent, %struct.XConfigureEvent, ptr, i64, i64, i64, i8, i64, ptr, i8, [4 x i64], %struct.SDL_Rect, i64, %struct._XSyncValue, i8, %struct.SDL_Rect, %struct.SDL_DisplayMode, i32, i32, i8, i8, i8, i8, i8, i8, i8, i8, i32, %struct.XPoint, ptr, ptr, i32, i32, i8 }
%struct.XShmSegmentInfo = type { i64, i32, ptr, i32 }
%struct.XConfigureEvent = type { i32, i64, i32, ptr, i64, i64, i32, i32, i32, i32, i32, i64, i32 }
%struct._XSyncValue = type { i32, i32 }
%struct.SDL_DisplayMode = type { i32, i32, i32, i32, float, float, i32, i32, ptr }
%struct.XPoint = type { i16, i16 }
%struct.SDL_Window = type { i32, ptr, ptr, i32, i32, i32, i32, i32, i32, i32, i32, float, float, i32, i32, i64, i64, float, i8, i8, i32, i32, %struct.SDL_Rect, %struct.SDL_Rect, %struct.SDL_Rect, i8, i8, i8, %struct.SDL_DisplayMode, %struct.SDL_DisplayMode, %struct.SDL_HDROutputProperties, float, ptr, i8, i8, i8, i8, i8, i8, i8, i8, i8, i32, i32, i32, i32, %struct.SDL_Rect, i32, i8, %struct.SDL_Rect, i32, %struct.SDL_Rect, ptr, ptr, i32, float, i32, i32, ptr, ptr, ptr, ptr, ptr, ptr, ptr, ptr, ptr }
%struct.SDL_HDROutputProperties = type { float, float }
%union._XEvent = type { [24 x i64] }
%struct.XClientMessageEvent = type { i32, i64, i32, ptr, i64, i64, i32, %union.anon }
%union.anon = type { [5 x i64] }

@X11_TriggerHitTestAction.directions = internal constant [8 x i32] [i32 0, i32 1, i32 2, i32 3, i32 4, i32 5, i32 6, i32 7], align 16
@X11_XSendEvent = external global ptr, align 8
@X11_XFlush = external global ptr, align 8
@X11_XUngrabPointer = external global ptr, align 8
@X11_XSync = external global ptr, align 8

; Function Attrs: nounwind uwtable
define internal void @InitiateWindowResize(ptr noundef %0, ptr noundef %1, ptr noundef %2, i32 noundef %3) #0 {
  %5 = alloca ptr, align 8
  %6 = alloca ptr, align 8
  %7 = alloca ptr, align 8
  %8 = alloca i32, align 4
  %9 = alloca ptr, align 8
  %10 = alloca ptr, align 8
  %11 = alloca ptr, align 8
  %12 = alloca %union._XEvent, align 8
  %13 = alloca i32, align 4
  store ptr %0, ptr %5, align 8
  store ptr %1, ptr %6, align 8
  store ptr %2, ptr %7, align 8
  store i32 %3, ptr %8, align 4
  call void @llvm.lifetime.start.p0(i64 8, ptr %9) #7
  %14 = load ptr, ptr %5, align 8
  %15 = getelementptr inbounds nuw %struct.SDL_VideoDevice, ptr %14, i32 0, i32 128
  %16 = load ptr, ptr %15, align 8
  store ptr %16, ptr %9, align 8
  call void @llvm.lifetime.start.p0(i64 8, ptr %10) #7
  %17 = load ptr, ptr %6, align 8
  %18 = getelementptr inbounds nuw %struct.SDL_WindowData, ptr %17, i32 0, i32 0
  %19 = load ptr, ptr %18, align 8
  store ptr %19, ptr %10, align 8
  call void @llvm.lifetime.start.p0(i64 8, ptr %11) #7
  %20 = load ptr, ptr %9, align 8
  %21 = getelementptr inbounds nuw %struct.SDL_VideoData, ptr %20, i32 0, i32 0
  %22 = load ptr, ptr %21, align 8
  store ptr %22, ptr %11, align 8
  call void @llvm.lifetime.start.p0(i64 192, ptr %12) #7
  %23 = load i32, ptr %8, align 4
  %24 = icmp slt i32 %23, 0
  br i1 %24, label %28, label %25

25:                                               ; preds = %4
  %26 = load i32, ptr %8, align 4
  %27 = icmp sgt i32 %26, 7
  br i1 %27, label %28, label %29

28:                                               ; preds = %25, %4
  store i32 1, ptr %13, align 4
  br label %93

29:                                               ; preds = %25
  %30 = load ptr, ptr @X11_XUngrabPointer, align 8
  %31 = load ptr, ptr %11, align 8
  %32 = call i32 %30(ptr noundef %31, i64 noundef 0)
  %33 = load ptr, ptr @X11_XFlush, align 8
  %34 = load ptr, ptr %11, align 8
  %35 = call i32 %33(ptr noundef %34)
  %36 = getelementptr inbounds nuw %struct.XClientMessageEvent, ptr %12, i32 0, i32 0
  store i32 33, ptr %36, align 8
  %37 = load ptr, ptr %6, align 8
  %38 = getelementptr inbounds nuw %struct.SDL_WindowData, ptr %37, i32 0, i32 1
  %39 = load i64, ptr %38, align 8
  %40 = getelementptr inbounds nuw %struct.XClientMessageEvent, ptr %12, i32 0, i32 4
  store i64 %39, ptr %40, align 8
  %41 = load ptr, ptr %9, align 8
  %42 = getelementptr inbounds nuw %struct.SDL_VideoData, ptr %41, i32 0, i32 16
  %43 = getelementptr inbounds nuw %struct.anon.1, ptr %42, i32 0, i32 15
  %44 = load i64, ptr %43, align 8
  %45 = getelementptr inbounds nuw %struct.XClientMessageEvent, ptr %12, i32 0, i32 5
  store i64 %44, ptr %45, align 8
  %46 = getelementptr inbounds nuw %struct.XClientMessageEvent, ptr %12, i32 0, i32 6
  store i32 32, ptr %46, align 8
  %47 = load ptr, ptr %10, align 8
  %48 = getelementptr inbounds nuw %struct.SDL_Window, ptr %47, i32 0, i32 3
  %49 = load i32, ptr %48, align 8
  %50 = sext i32 %49 to i64
  %51 = load ptr, ptr %7, align 8
  %52 = getelementptr inbounds nuw %struct.SDL_Point, ptr %51, i32 0, i32 0
  %53 = load i32, ptr %52, align 4
  %54 = sext i32 %53 to i64
  %55 = add i64 %50, %54
  %56 = getelementptr inbounds nuw %struct.XClientMessageEvent, ptr %12, i32 0, i32 7
  %57 = getelementptr inbounds [5 x i64], ptr %56, i64 0, i64 0
  store i64 %55, ptr %57, align 8
  %58 = load ptr, ptr %10, align 8
  %59 = getelementptr inbounds nuw %struct.SDL_Window, ptr %58, i32 0, i32 4
  %60 = load i32, ptr %59, align 4
  %61 = sext i32 %60 to i64
  %62 = load ptr, ptr %7, align 8
  %63 = getelementptr inbounds nuw %struct.SDL_Point, ptr %62, i32 0, i32 1
  %64 = load i32, ptr %63, align 4
  %65 = sext i32 %64 to i64
  %66 = add i64 %61, %65
  %67 = getelementptr inbounds nuw %struct.XClientMessageEvent, ptr %12, i32 0, i32 7
  %68 = getelementptr inbounds [5 x i64], ptr %67, i64 0, i64 1
  store i64 %66, ptr %68, align 8
  %69 = load i32, ptr %8, align 4
  %70 = sext i32 %69 to i64
  %71 = getelementptr inbounds nuw %struct.XClientMessageEvent, ptr %12, i32 0, i32 7
  %72 = getelementptr inbounds [5 x i64], ptr %71, i64 0, i64 2
  store i64 %70, ptr %72, align 8
  %73 = getelementptr inbounds nuw %struct.XClientMessageEvent, ptr %12, i32 0, i32 7
  %74 = getelementptr inbounds [5 x i64], ptr %73, i64 0, i64 3
  store i64 1, ptr %74, align 8
  %75 = getelementptr inbounds nuw %struct.XClientMessageEvent, ptr %12, i32 0, i32 7
  %76 = getelementptr inbounds [5 x i64], ptr %75, i64 0, i64 4
  store i64 0, ptr %76, align 8
  %77 = load ptr, ptr @X11_XSendEvent, align 8
  %78 = load ptr, ptr %11, align 8
  %79 = load ptr, ptr %11, align 8
  %80 = getelementptr inbounds nuw %struct.anon.4, ptr %79, i32 0, i32 35
  %81 = load ptr, ptr %80, align 8
  %82 = load ptr, ptr %11, align 8
  %83 = getelementptr inbounds nuw %struct.anon.4, ptr %82, i32 0, i32 33
  %84 = load i32, ptr %83, align 8
  %85 = sext i32 %84 to i64
  %86 = getelementptr inbounds %struct.Screen, ptr %81, i64 %85
  %87 = getelementptr inbounds nuw %struct.Screen, ptr %86, i32 0, i32 2
  %88 = load i64, ptr %87, align 8
  %89 = call i32 %77(ptr noundef %78, i64 noundef %88, i32 noundef 0, i64 noundef 1572864, ptr noundef %12)
  %90 = load ptr, ptr @X11_XSync, align 8
  %91 = load ptr, ptr %11, align 8
  %92 = call i32 %90(ptr noundef %91, i32 noundef 0)
  store i32 0, ptr %13, align 4
  br label %93

93:                                               ; preds = %29, %28
  call void @llvm.lifetime.end.p0(i64 192, ptr %12) #7
  call void @llvm.lifetime.end.p0(i64 8, ptr %11) #7
  call void @llvm.lifetime.end.p0(i64 8, ptr %10) #7
  call void @llvm.lifetime.end.p0(i64 8, ptr %9) #7
  %94 = load i32, ptr %13, align 4
  switch i32 %94, label %96 [
    i32 0, label %95
    i32 1, label %95
  ]

95:                                               ; preds = %93, %93
  ret void

96:                                               ; preds = %93
  unreachable
}

; Function Attrs: nounwind uwtable
define internal void @ScheduleWindowMove(ptr noundef %0, ptr noundef %1, ptr noundef %2) #0 {
  %4 = alloca ptr, align 8
  %5 = alloca ptr, align 8
  %6 = alloca ptr, align 8
  store ptr %0, ptr %4, align 8
  store ptr %1, ptr %5, align 8
  store ptr %2, ptr %6, align 8
  %7 = load ptr, ptr %5, align 8
  %8 = getelementptr inbounds nuw %struct.SDL_WindowData, ptr %7, i32 0, i32 20
  store i8 1, ptr %8, align 8
  %9 = load ptr, ptr %5, align 8
  %10 = getelementptr inbounds nuw %struct.SDL_WindowData, ptr %9, i32 0, i32 21
  %11 = load ptr, ptr %6, align 8
  call void @llvm.memcpy.p0.p0.i64(ptr align 4 %10, ptr align 4 %11, i64 8, i1 false)
  ret void
}

; Function Attrs: nounwind uwtable
define internal void @DispatchWindowMove(ptr noundef %0, ptr noundef %1, ptr noundef %2) #0 {
  %4 = alloca ptr, align 8
  %5 = alloca ptr, align 8
  %6 = alloca ptr, align 8
  %7 = alloca ptr, align 8
  %8 = alloca ptr, align 8
  %9 = alloca ptr, align 8
  %10 = alloca %union._XEvent, align 8
  store ptr %0, ptr %4, align 8
  store ptr %1, ptr %5, align 8
  store ptr %2, ptr %6, align 8
  call void @llvm.lifetime.start.p0(i64 8, ptr %7) #7
  %11 = load ptr, ptr %4, align 8
  %12 = getelementptr inbounds nuw %struct.SDL_VideoDevice, ptr %11, i32 0, i32 128
  %13 = load ptr, ptr %12, align 8
  store ptr %13, ptr %7, align 8
  call void @llvm.lifetime.start.p0(i64 8, ptr %8) #7
  %14 = load ptr, ptr %5, align 8
  %15 = getelementptr inbounds nuw %struct.SDL_WindowData, ptr %14, i32 0, i32 0
  %16 = load ptr, ptr %15, align 8
  store ptr %16, ptr %8, align 8
  call void @llvm.lifetime.start.p0(i64 8, ptr %9) #7
  %17 = load ptr, ptr %7, align 8
  %18 = getelementptr inbounds nuw %struct.SDL_VideoData, ptr %17, i32 0, i32 0
  %19 = load ptr, ptr %18, align 8
  store ptr %19, ptr %9, align 8
  call void @llvm.lifetime.start.p0(i64 192, ptr %10) #7
  %20 = load ptr, ptr @X11_XUngrabPointer, align 8
  %21 = load ptr, ptr %9, align 8
  %22 = call i32 %20(ptr noundef %21, i64 noundef 0)
  %23 = load ptr, ptr @X11_XFlush, align 8
  %24 = load ptr, ptr %9, align 8
  %25 = call i32 %23(ptr noundef %24)
  %26 = getelementptr inbounds nuw %struct.XClientMessageEvent, ptr %10, i32 0, i32 0
  store i32 33, ptr %26, align 8
  %27 = load ptr, ptr %5, align 8
  %28 = getelementptr inbounds nuw %struct.SDL_WindowData, ptr %27, i32 0, i32 1
  %29 = load i64, ptr %28, align 8
  %30 = getelementptr inbounds nuw %struct.XClientMessageEvent, ptr %10, i32 0, i32 4
  store i64 %29, ptr %30, align 8
  %31 = load ptr, ptr %7, align 8
  %32 = getelementptr inbounds nuw %struct.SDL_VideoData, ptr %31, i32 0, i32 16
  %33 = getelementptr inbounds nuw %struct.anon.1, ptr %32, i32 0, i32 15
  %34 = load i64, ptr %33, align 8
  %35 = getelementptr inbounds nuw %struct.XClientMessageEvent, ptr %10, i32 0, i32 5
  store i64 %34, ptr %35, align 8
  %36 = getelementptr inbounds nuw %struct.XClientMessageEvent, ptr %10, i32 0, i32 6
  store i32 32, ptr %36, align 8
  %37 = load ptr, ptr %8, align 8
  %38 = getelementptr inbounds nuw %struct.SDL_Window, ptr %37, i32 0, i32 3
  %39 = load i32, ptr %38, align 8
  %40 = sext i32 %39 to i64
  %41 = load ptr, ptr %6, align 8
  %42 = getelementptr inbounds nuw %struct.SDL_Point, ptr %41, i32 0, i32 0
  %43 = load i32, ptr %42, align 4
  %44 = sext i32 %43 to i64
  %45 = add i64 %40, %44
  %46 = getelementptr inbounds nuw %struct.XClientMessageEvent, ptr %10, i32 0, i32 7
  %47 = getelementptr inbounds [5 x i64], ptr %46, i64 0, i64 0
  store i64 %45, ptr %47, align 8
  %48 = load ptr, ptr %8, align 8
  %49 = getelementptr inbounds nuw %struct.SDL_Window, ptr %48, i32 0, i32 4
  %50 = load i32, ptr %49, align 4
  %51 = sext i32 %50 to i64
  %52 = load ptr, ptr %6, align 8
  %53 = getelementptr inbounds nuw %struct.SDL_Point, ptr %52, i32 0, i32 1
  %54 = load i32, ptr %53, align 4
  %55 = sext i32 %54 to i64
  %56 = add i64 %51, %55
  %57 = getelementptr inbounds nuw %struct.XClientMessageEvent, ptr %10, i32 0, i32 7
  %58 = getelementptr inbounds [5 x i64], ptr %57, i64 0, i64 1
  store i64 %56, ptr %58, align 8
  %59 = getelementptr inbounds nuw %struct.XClientMessageEvent, ptr %10, i32 0, i32 7
  %60 = getelementptr inbounds [5 x i64], ptr %59, i64 0, i64 2
  store i64 8, ptr %60, align 8
  %61 = getelementptr inbounds nuw %struct.XClientMessageEvent, ptr %10, i32 0, i32 7
  %62 = getelementptr inbounds [5 x i64], ptr %61, i64 0, i64 3
  store i64 1, ptr %62, align 8
  %63 = getelementptr inbounds nuw %struct.XClientMessageEvent, ptr %10, i32 0, i32 7
  %64 = getelementptr inbounds [5 x i64], ptr %63, i64 0, i64 4
  store i64 0, ptr %64, align 8
  %65 = load ptr, ptr @X11_XSendEvent, align 8
  %66 = load ptr, ptr %9, align 8
  %67 = load ptr, ptr %9, align 8
  %68 = getelementptr inbounds nuw %struct.anon.4, ptr %67, i32 0, i32 35
  %69 = load ptr, ptr %68, align 8
  %70 = load ptr, ptr %9, align 8
  %71 = getelementptr inbounds nuw %struct.anon.4, ptr %70, i32 0, i32 33
  %72 = load i32, ptr %71, align 8
  %73 = sext i32 %72 to i64
  %74 = getelementptr inbounds %struct.Screen, ptr %69, i64 %73
  %75 = getelementptr inbounds nuw %struct.Screen, ptr %74, i32 0, i32 2
  %76 = load i64, ptr %75, align 8
  %77 = call i32 %65(ptr noundef %66, i64 noundef %76, i32 noundef 0, i64 noundef 1572864, ptr noundef %10)
  %78 = load ptr, ptr @X11_XSync, align 8
  %79 = load ptr, ptr %9, align 8
  %80 = call i32 %78(ptr noundef %79, i32 noundef 0)
  call void @llvm.lifetime.end.p0(i64 192, ptr %10) #7
  call void @llvm.lifetime.end.p0(i64 8, ptr %9) #7
  call void @llvm.lifetime.end.p0(i64 8, ptr %8) #7
  call void @llvm.lifetime.end.p0(i64 8, ptr %7) #7
  ret void
}

; Function Attrs: nounwind uwtable
define hidden zeroext i1 @X11_TriggerHitTestAction(ptr noundef %0, ptr noundef %1, float noundef %2, float noundef %3) #0 {
  %5 = alloca i1, align 1
  %6 = alloca ptr, align 8
  %7 = alloca ptr, align 8
  %8 = alloca float, align 4
  %9 = alloca float, align 4
  %10 = alloca ptr, align 8
  %11 = alloca %struct.SDL_Point, align 4
  %12 = alloca i32, align 4
  store ptr %0, ptr %6, align 8
  store ptr %1, ptr %7, align 8
  store float %2, ptr %8, align 4
  store float %3, ptr %9, align 4
  call void @llvm.lifetime.start.p0(i64 8, ptr %10) #7
  %13 = load ptr, ptr %7, align 8
  %14 = getelementptr inbounds nuw %struct.SDL_WindowData, ptr %13, i32 0, i32 0
  %15 = load ptr, ptr %14, align 8
  store ptr %15, ptr %10, align 8
  %16 = load ptr, ptr %10, align 8
  %17 = getelementptr inbounds nuw %struct.SDL_Window, ptr %16, i32 0, i32 52
  %18 = load ptr, ptr %17, align 8
  %19 = icmp ne ptr %18, null
  br i1 %19, label %20, label %57

20:                                               ; preds = %4
  call void @llvm.lifetime.start.p0(i64 8, ptr %11) #7
  %21 = getelementptr inbounds nuw %struct.SDL_Point, ptr %11, i32 0, i32 0
  %22 = load float, ptr %8, align 4
  %23 = fptosi float %22 to i32
  store i32 %23, ptr %21, align 4
  %24 = getelementptr inbounds nuw %struct.SDL_Point, ptr %11, i32 0, i32 1
  %25 = load float, ptr %9, align 4
  %26 = fptosi float %25 to i32
  store i32 %26, ptr %24, align 4
  %27 = load ptr, ptr %7, align 8
  %28 = getelementptr inbounds nuw %struct.SDL_WindowData, ptr %27, i32 0, i32 49
  %29 = load i32, ptr %28, align 8
  switch i32 %29, label %55 [
    i32 1, label %30
    i32 2, label %45
    i32 3, label %45
    i32 4, label %45
    i32 5, label %45
    i32 6, label %45
    i32 7, label %45
    i32 8, label %45
    i32 9, label %45
  ]

30:                                               ; preds = %20
  %31 = load ptr, ptr %7, align 8
  %32 = getelementptr inbounds nuw %struct.SDL_WindowData, ptr %31, i32 0, i32 0
  %33 = load ptr, ptr %32, align 8
  %34 = getelementptr inbounds nuw %struct.SDL_Window, ptr %33, i32 0, i32 15
  %35 = load i64, ptr %34, align 8
  %36 = and i64 %35, 512
  %37 = icmp ne i64 %36, 0
  br i1 %37, label %38, label %41

38:                                               ; preds = %30
  %39 = load ptr, ptr %6, align 8
  %40 = load ptr, ptr %7, align 8
  call void @DispatchWindowMove(ptr noundef %39, ptr noundef %40, ptr noundef %11)
  br label %44

41:                                               ; preds = %30
  %42 = load ptr, ptr %6, align 8
  %43 = load ptr, ptr %7, align 8
  call void @ScheduleWindowMove(ptr noundef %42, ptr noundef %43, ptr noundef %11)
  br label %44

44:                                               ; preds = %41, %38
  store i1 true, ptr %5, align 1
  store i32 1, ptr %12, align 4
  br label %56

45:                                               ; preds = %20, %20, %20, %20, %20, %20, %20, %20
  %46 = load ptr, ptr %6, align 8
  %47 = load ptr, ptr %7, align 8
  %48 = load ptr, ptr %7, align 8
  %49 = getelementptr inbounds nuw %struct.SDL_WindowData, ptr %48, i32 0, i32 49
  %50 = load i32, ptr %49, align 8
  %51 = sub i32 %50, 2
  %52 = zext i32 %51 to i64
  %53 = getelementptr inbounds nuw [8 x i32], ptr @X11_TriggerHitTestAction.directions, i64 0, i64 %52
  %54 = load i32, ptr %53, align 4
  call void @InitiateWindowResize(ptr noundef %46, ptr noundef %47, ptr noundef %11, i32 noundef %54)
  store i1 true, ptr %5, align 1
  store i32 1, ptr %12, align 4
  br label %56

55:                                               ; preds = %20
  store i1 false, ptr %5, align 1
  store i32 1, ptr %12, align 4
  br label %56

56:                                               ; preds = %55, %45, %44
  call void @llvm.lifetime.end.p0(i64 8, ptr %11) #7
  br label %58

57:                                               ; preds = %4
  store i1 false, ptr %5, align 1
  store i32 1, ptr %12, align 4
  br label %58

58:                                               ; preds = %57, %56
  call void @llvm.lifetime.end.p0(i64 8, ptr %10) #7
  %59 = load i1, ptr %5, align 1
  ret i1 %59
}