; Function Attrs: nounwind uwtable
define hidden noundef zeroext i1 @X11_TriggerHitTestAction(ptr noundef readonly captures(none) %0, ptr noundef captures(none) %1, float noundef %2, float noundef %3) local_unnamed_addr #1 {
  %5 = alloca %union._XEvent, align 8
  %6 = alloca %union._XEvent, align 8
  %7 = load ptr, ptr %1, align 8
  %8 = getelementptr inbounds nuw i8, ptr %7, i64 352
  %9 = load ptr, ptr %8, align 8
  %.not = icmp eq ptr %9, null
  br i1 %.not, label %106, label %10

10:                                               ; preds = %4
  %11 = fptosi float %2 to i32
  %12 = fptosi float %3 to i32
  %13 = getelementptr inbounds nuw i8, ptr %1, i64 544
  %14 = load i32, ptr %13, align 8
  switch i32 %14, label %106 [
    i32 1, label %15
    i32 2, label %InitiateWindowResize.exit
    i32 3, label %InitiateWindowResize.exit
    i32 4, label %InitiateWindowResize.exit
    i32 5, label %InitiateWindowResize.exit
    i32 6, label %InitiateWindowResize.exit
    i32 7, label %InitiateWindowResize.exit
    i32 8, label %InitiateWindowResize.exit
    i32 9, label %InitiateWindowResize.exit
  ]

15:                                               ; preds = %10
  %16 = getelementptr inbounds nuw i8, ptr %7, i64 72
  %17 = load i64, ptr %16, align 8
  %18 = and i64 %17, 512
  %.not14 = icmp eq i64 %18, 0
  br i1 %.not14, label %59, label %19

19:                                               ; preds = %15
  %20 = getelementptr i8, ptr %0, i64 1656
  %.val = load ptr, ptr %20, align 8
  %21 = load ptr, ptr %.val, align 8
  call void @llvm.lifetime.start.p0(i64 192, ptr nonnull %6) #12
  %22 = load ptr, ptr @X11_XUngrabPointer, align 8
  %23 = tail call i32 %22(ptr noundef %21, i64 noundef 0) #12
  %24 = load ptr, ptr @X11_XFlush, align 8
  %25 = tail call i32 %24(ptr noundef %21) #12
  store i32 33, ptr %6, align 8
  %26 = getelementptr inbounds nuw i8, ptr %1, i64 8
  %27 = load i64, ptr %26, align 8
  %28 = getelementptr inbounds nuw i8, ptr %6, i64 32
  store i64 %27, ptr %28, align 8
  %29 = getelementptr inbounds nuw i8, ptr %.val, i64 312
  %30 = load i64, ptr %29, align 8
  %31 = getelementptr inbounds nuw i8, ptr %6, i64 40
  store i64 %30, ptr %31, align 8
  %32 = getelementptr inbounds nuw i8, ptr %6, i64 48
  store i32 32, ptr %32, align 8
  %33 = getelementptr inbounds nuw i8, ptr %7, i64 24
  %34 = load i32, ptr %33, align 8
  %35 = sext i32 %34 to i64
  %36 = sext i32 %11 to i64
  %37 = add nsw i64 %35, %36
  %38 = getelementptr inbounds nuw i8, ptr %6, i64 56
  store i64 %37, ptr %38, align 8
  %39 = getelementptr inbounds nuw i8, ptr %7, i64 28
  %40 = load i32, ptr %39, align 4
  %41 = sext i32 %40 to i64
  %42 = sext i32 %12 to i64
  %43 = add nsw i64 %41, %42
  %44 = getelementptr inbounds nuw i8, ptr %6, i64 64
  store i64 %43, ptr %44, align 8
  %45 = getelementptr inbounds nuw i8, ptr %6, i64 72
  store i64 8, ptr %45, align 8
  %46 = getelementptr inbounds nuw i8, ptr %6, i64 80
  store i64 1, ptr %46, align 8
  %47 = getelementptr inbounds nuw i8, ptr %6, i64 88
  store i64 0, ptr %47, align 8
  %48 = load ptr, ptr @X11_XSendEvent, align 8
  %49 = getelementptr inbounds nuw i8, ptr %21, i64 232
  %50 = load ptr, ptr %49, align 8
  %51 = getelementptr inbounds nuw i8, ptr %21, i64 224
  %52 = load i32, ptr %51, align 8
  %53 = sext i32 %52 to i64
  %54 = getelementptr inbounds %struct.Screen, ptr %50, i64 %53, i32 2
  %55 = load i64, ptr %54, align 8
  %56 = call i32 %48(ptr noundef %21, i64 noundef %55, i32 noundef 0, i64 noundef 1572864, ptr noundef nonnull %6) #12
  %57 = load ptr, ptr @X11_XSync, align 8
  %58 = call i32 %57(ptr noundef %21, i32 noundef 0) #12
  call void @llvm.lifetime.end.p0(i64 192, ptr nonnull %6) #12
  br label %106

59:                                               ; preds = %15
  %60 = getelementptr inbounds nuw i8, ptr %1, i64 144
  store i8 1, ptr %60, align 8
  %61 = getelementptr inbounds nuw i8, ptr %1, i64 148
  %.sroa.6.0.insert.ext = zext i32 %12 to i64
  %.sroa.6.0.insert.shift = shl nuw i64 %.sroa.6.0.insert.ext, 32
  %.sroa.0.0.insert.ext = zext i32 %11 to i64
  %.sroa.0.0.insert.insert = or disjoint i64 %.sroa.6.0.insert.shift, %.sroa.0.0.insert.ext
  store i64 %.sroa.0.0.insert.insert, ptr %61, align 4
  br label %106

InitiateWindowResize.exit:                        ; preds = %10, %10, %10, %10, %10, %10, %10, %10
  %62 = add nsw i32 %14, -2
  %63 = zext nneg i32 %62 to i64
  %64 = getelementptr inbounds nuw [8 x i32], ptr @X11_TriggerHitTestAction.directions, i64 0, i64 %63
  %65 = load i32, ptr %64, align 4
  %66 = getelementptr i8, ptr %0, i64 1656
  %.val15 = load ptr, ptr %66, align 8
  %67 = load ptr, ptr %.val15, align 8
  call void @llvm.lifetime.start.p0(i64 192, ptr nonnull %5) #12
  %68 = load ptr, ptr @X11_XUngrabPointer, align 8
  %69 = tail call i32 %68(ptr noundef %67, i64 noundef 0) #12
  %70 = load ptr, ptr @X11_XFlush, align 8
  %71 = tail call i32 %70(ptr noundef %67) #12
  store i32 33, ptr %5, align 8
  %72 = getelementptr inbounds nuw i8, ptr %1, i64 8
  %73 = load i64, ptr %72, align 8
  %74 = getelementptr inbounds nuw i8, ptr %5, i64 32
  store i64 %73, ptr %74, align 8
  %75 = getelementptr inbounds nuw i8, ptr %.val15, i64 312
  %76 = load i64, ptr %75, align 8
  %77 = getelementptr inbounds nuw i8, ptr %5, i64 40
  store i64 %76, ptr %77, align 8
  %78 = getelementptr inbounds nuw i8, ptr %5, i64 48
  store i32 32, ptr %78, align 8
  %79 = getelementptr inbounds nuw i8, ptr %7, i64 24
  %80 = load i32, ptr %79, align 8
  %81 = sext i32 %80 to i64
  %82 = sext i32 %11 to i64
  %83 = add nsw i64 %81, %82
  %84 = getelementptr inbounds nuw i8, ptr %5, i64 56
  store i64 %83, ptr %84, align 8
  %85 = getelementptr inbounds nuw i8, ptr %7, i64 28
  %86 = load i32, ptr %85, align 4
  %87 = sext i32 %86 to i64
  %88 = sext i32 %12 to i64
  %89 = add nsw i64 %87, %88
  %90 = getelementptr inbounds nuw i8, ptr %5, i64 64
  store i64 %89, ptr %90, align 8
  %91 = zext nneg i32 %65 to i64
  %92 = getelementptr inbounds nuw i8, ptr %5, i64 72
  store i64 %91, ptr %92, align 8
  %93 = getelementptr inbounds nuw i8, ptr %5, i64 80
  store i64 1, ptr %93, align 8
  %94 = getelementptr inbounds nuw i8, ptr %5, i64 88
  store i64 0, ptr %94, align 8
  %95 = load ptr, ptr @X11_XSendEvent, align 8
  %96 = getelementptr inbounds nuw i8, ptr %67, i64 232
  %97 = load ptr, ptr %96, align 8
  %98 = getelementptr inbounds nuw i8, ptr %67, i64 224
  %99 = load i32, ptr %98, align 8
  %100 = sext i32 %99 to i64
  %101 = getelementptr inbounds %struct.Screen, ptr %97, i64 %100, i32 2
  %102 = load i64, ptr %101, align 8
  %103 = call i32 %95(ptr noundef %67, i64 noundef %102, i32 noundef 0, i64 noundef 1572864, ptr noundef nonnull %5) #12
  %104 = load ptr, ptr @X11_XSync, align 8
  %105 = call i32 %104(ptr noundef %67, i32 noundef 0) #12
  call void @llvm.lifetime.end.p0(i64 192, ptr nonnull %5) #12
  br label %106

106:                                              ; preds = %InitiateWindowResize.exit, %59, %19, %10, %4
  %.1 = phi i1 [ false, %4 ], [ true, %InitiateWindowResize.exit ], [ true, %59 ], [ true, %19 ], [ false, %10 ]
  ret i1 %.1
}